
/home/mat/GitHub/RISC-V-heterogeneous-extension/bare-metal/interrupt-gen/boot.elf:     file format elf64-littleriscv


Disassembly of section .text:

0000000080000000 <_start-0x8>:
	...

0000000080000008 <_start>:
    80000008:	0810011b          	addiw	sp,zero,129
    8000000c:	01811113          	slli	sp,sp,0x18
    80000010:	494000ef          	jal	ra,800004a4 <main>

0000000080000014 <_hang>:
    80000014:	10500073          	wfi
    80000018:	ffdff06f          	j	80000014 <_hang>

000000008000001c <kputc>:
    8000001c:	fd010113          	addi	sp,sp,-48
    80000020:	02813423          	sd	s0,40(sp)
    80000024:	03010413          	addi	s0,sp,48
    80000028:	00050793          	mv	a5,a0
    8000002c:	fcf40fa3          	sb	a5,-33(s0)
    80000030:	600107b7          	lui	a5,0x60010
    80000034:	fef43423          	sd	a5,-24(s0)
    80000038:	00000013          	nop
    8000003c:	fe843783          	ld	a5,-24(s0)
    80000040:	0087a783          	lw	a5,8(a5) # 60010008 <_start-0x1fff0000>
    80000044:	0007879b          	sext.w	a5,a5
    80000048:	0087f793          	andi	a5,a5,8
    8000004c:	0007879b          	sext.w	a5,a5
    80000050:	fe0796e3          	bnez	a5,8000003c <kputc+0x20>
    80000054:	fdf44783          	lbu	a5,-33(s0)
    80000058:	0007871b          	sext.w	a4,a5
    8000005c:	fe843783          	ld	a5,-24(s0)
    80000060:	00e7a223          	sw	a4,4(a5)
    80000064:	00000013          	nop
    80000068:	02813403          	ld	s0,40(sp)
    8000006c:	03010113          	addi	sp,sp,48
    80000070:	00008067          	ret

0000000080000074 <kputs>:
    80000074:	fe010113          	addi	sp,sp,-32
    80000078:	00113c23          	sd	ra,24(sp)
    8000007c:	00813823          	sd	s0,16(sp)
    80000080:	02010413          	addi	s0,sp,32
    80000084:	fea43423          	sd	a0,-24(s0)
    80000088:	01c0006f          	j	800000a4 <kputs+0x30>
    8000008c:	fe843783          	ld	a5,-24(s0)
    80000090:	00178713          	addi	a4,a5,1
    80000094:	fee43423          	sd	a4,-24(s0)
    80000098:	0007c783          	lbu	a5,0(a5)
    8000009c:	00078513          	mv	a0,a5
    800000a0:	f7dff0ef          	jal	ra,8000001c <kputc>
    800000a4:	fe843783          	ld	a5,-24(s0)
    800000a8:	0007c783          	lbu	a5,0(a5)
    800000ac:	fe0790e3          	bnez	a5,8000008c <kputs+0x18>
    800000b0:	00d00513          	li	a0,13
    800000b4:	f69ff0ef          	jal	ra,8000001c <kputc>
    800000b8:	00a00513          	li	a0,10
    800000bc:	f61ff0ef          	jal	ra,8000001c <kputc>
    800000c0:	00000013          	nop
    800000c4:	01813083          	ld	ra,24(sp)
    800000c8:	01013403          	ld	s0,16(sp)
    800000cc:	02010113          	addi	sp,sp,32
    800000d0:	00008067          	ret

00000000800000d4 <kprintf>:
    800000d4:	f3010113          	addi	sp,sp,-208
    800000d8:	08113423          	sd	ra,136(sp)
    800000dc:	08813023          	sd	s0,128(sp)
    800000e0:	09010413          	addi	s0,sp,144
    800000e4:	f6a43c23          	sd	a0,-136(s0)
    800000e8:	00b43423          	sd	a1,8(s0)
    800000ec:	00c43823          	sd	a2,16(s0)
    800000f0:	00d43c23          	sd	a3,24(s0)
    800000f4:	02e43023          	sd	a4,32(s0)
    800000f8:	02f43423          	sd	a5,40(s0)
    800000fc:	03043823          	sd	a6,48(s0)
    80000100:	03143c23          	sd	a7,56(s0)
    80000104:	fe042623          	sw	zero,-20(s0)
    80000108:	fe042423          	sw	zero,-24(s0)
    8000010c:	fe042223          	sw	zero,-28(s0)
    80000110:	04040793          	addi	a5,s0,64
    80000114:	fc878793          	addi	a5,a5,-56
    80000118:	faf43023          	sd	a5,-96(s0)
    8000011c:	2f00006f          	j	8000040c <kprintf+0x338>
    80000120:	fec42783          	lw	a5,-20(s0)
    80000124:	0007879b          	sext.w	a5,a5
    80000128:	28078c63          	beqz	a5,800003c0 <kprintf+0x2ec>
    8000012c:	fb744783          	lbu	a5,-73(s0)
    80000130:	0007879b          	sext.w	a5,a5
    80000134:	f9d7869b          	addiw	a3,a5,-99
    80000138:	0006871b          	sext.w	a4,a3
    8000013c:	01500793          	li	a5,21
    80000140:	26e7e863          	bltu	a5,a4,800003b0 <kprintf+0x2dc>
    80000144:	02069793          	slli	a5,a3,0x20
    80000148:	0207d793          	srli	a5,a5,0x20
    8000014c:	00279713          	slli	a4,a5,0x2
    80000150:	00000797          	auipc	a5,0x0
    80000154:	3d878793          	addi	a5,a5,984 # 80000528 <main+0x84>
    80000158:	00f707b3          	add	a5,a4,a5
    8000015c:	0007a783          	lw	a5,0(a5)
    80000160:	0007871b          	sext.w	a4,a5
    80000164:	00000797          	auipc	a5,0x0
    80000168:	3c478793          	addi	a5,a5,964 # 80000528 <main+0x84>
    8000016c:	00f707b3          	add	a5,a4,a5
    80000170:	00078067          	jr	a5
    80000174:	00100793          	li	a5,1
    80000178:	fef42423          	sw	a5,-24(s0)
    8000017c:	2900006f          	j	8000040c <kprintf+0x338>
    80000180:	00100793          	li	a5,1
    80000184:	fef42223          	sw	a5,-28(s0)
    80000188:	2840006f          	j	8000040c <kprintf+0x338>
    8000018c:	fe842783          	lw	a5,-24(s0)
    80000190:	0007879b          	sext.w	a5,a5
    80000194:	02078263          	beqz	a5,800001b8 <kprintf+0xe4>
    80000198:	fa043783          	ld	a5,-96(s0)
    8000019c:	00878713          	addi	a4,a5,8
    800001a0:	fae43023          	sd	a4,-96(s0)
    800001a4:	0007b783          	ld	a5,0(a5)
    800001a8:	fcf43c23          	sd	a5,-40(s0)
    800001ac:	03c00793          	li	a5,60
    800001b0:	fcf43823          	sd	a5,-48(s0)
    800001b4:	09c0006f          	j	80000250 <kprintf+0x17c>
    800001b8:	fa043783          	ld	a5,-96(s0)
    800001bc:	00878713          	addi	a4,a5,8
    800001c0:	fae43023          	sd	a4,-96(s0)
    800001c4:	0007a783          	lw	a5,0(a5)
    800001c8:	02079793          	slli	a5,a5,0x20
    800001cc:	0207d793          	srli	a5,a5,0x20
    800001d0:	fcf43c23          	sd	a5,-40(s0)
    800001d4:	fe442783          	lw	a5,-28(s0)
    800001d8:	0007879b          	sext.w	a5,a5
    800001dc:	00078663          	beqz	a5,800001e8 <kprintf+0x114>
    800001e0:	00400793          	li	a5,4
    800001e4:	0080006f          	j	800001ec <kprintf+0x118>
    800001e8:	01c00793          	li	a5,28
    800001ec:	fcf43823          	sd	a5,-48(s0)
    800001f0:	0600006f          	j	80000250 <kprintf+0x17c>
    800001f4:	fd043783          	ld	a5,-48(s0)
    800001f8:	0007879b          	sext.w	a5,a5
    800001fc:	fd843703          	ld	a4,-40(s0)
    80000200:	00f757b3          	srl	a5,a4,a5
    80000204:	00f7f793          	andi	a5,a5,15
    80000208:	faf43423          	sd	a5,-88(s0)
    8000020c:	fa843703          	ld	a4,-88(s0)
    80000210:	00900793          	li	a5,9
    80000214:	00e7cc63          	blt	a5,a4,8000022c <kprintf+0x158>
    80000218:	fa843783          	ld	a5,-88(s0)
    8000021c:	0ff7f793          	andi	a5,a5,255
    80000220:	0307879b          	addiw	a5,a5,48
    80000224:	0ff7f793          	andi	a5,a5,255
    80000228:	0140006f          	j	8000023c <kprintf+0x168>
    8000022c:	fa843783          	ld	a5,-88(s0)
    80000230:	0ff7f793          	andi	a5,a5,255
    80000234:	0577879b          	addiw	a5,a5,87
    80000238:	0ff7f793          	andi	a5,a5,255
    8000023c:	00078513          	mv	a0,a5
    80000240:	dddff0ef          	jal	ra,8000001c <kputc>
    80000244:	fd043783          	ld	a5,-48(s0)
    80000248:	ffc78793          	addi	a5,a5,-4
    8000024c:	fcf43823          	sd	a5,-48(s0)
    80000250:	fd043783          	ld	a5,-48(s0)
    80000254:	fa07d0e3          	bgez	a5,800001f4 <kprintf+0x120>
    80000258:	1580006f          	j	800003b0 <kprintf+0x2dc>
    8000025c:	02000793          	li	a5,32
    80000260:	fcf43023          	sd	a5,-64(s0)
    80000264:	fe842783          	lw	a5,-24(s0)
    80000268:	0007879b          	sext.w	a5,a5
    8000026c:	00078e63          	beqz	a5,80000288 <kprintf+0x1b4>
    80000270:	fa043783          	ld	a5,-96(s0)
    80000274:	00878713          	addi	a4,a5,8
    80000278:	fae43023          	sd	a4,-96(s0)
    8000027c:	0007b783          	ld	a5,0(a5)
    80000280:	fcf43423          	sd	a5,-56(s0)
    80000284:	0180006f          	j	8000029c <kprintf+0x1c8>
    80000288:	fa043783          	ld	a5,-96(s0)
    8000028c:	00878713          	addi	a4,a5,8
    80000290:	fae43023          	sd	a4,-96(s0)
    80000294:	0007a783          	lw	a5,0(a5)
    80000298:	fcf43423          	sd	a5,-56(s0)
    8000029c:	fc843783          	ld	a5,-56(s0)
    800002a0:	0607d463          	bgez	a5,80000308 <kprintf+0x234>
    800002a4:	02d00513          	li	a0,45
    800002a8:	d75ff0ef          	jal	ra,8000001c <kputc>
    800002ac:	fc843783          	ld	a5,-56(s0)
    800002b0:	40f007b3          	neg	a5,a5
    800002b4:	fcf43423          	sd	a5,-56(s0)
    800002b8:	0500006f          	j	80000308 <kprintf+0x234>
    800002bc:	fc843703          	ld	a4,-56(s0)
    800002c0:	00a00793          	li	a5,10
    800002c4:	02f767b3          	rem	a5,a4,a5
    800002c8:	0ff7f793          	andi	a5,a5,255
    800002cc:	fc043703          	ld	a4,-64(s0)
    800002d0:	fff70713          	addi	a4,a4,-1
    800002d4:	fce43023          	sd	a4,-64(s0)
    800002d8:	0307879b          	addiw	a5,a5,48
    800002dc:	0ff7f713          	andi	a4,a5,255
    800002e0:	fc043783          	ld	a5,-64(s0)
    800002e4:	ff040693          	addi	a3,s0,-16
    800002e8:	00f687b3          	add	a5,a3,a5
    800002ec:	f8e78823          	sb	a4,-112(a5)
    800002f0:	fc843703          	ld	a4,-56(s0)
    800002f4:	00a00793          	li	a5,10
    800002f8:	02f747b3          	div	a5,a4,a5
    800002fc:	fcf43423          	sd	a5,-56(s0)
    80000300:	fc843783          	ld	a5,-56(s0)
    80000304:	00078863          	beqz	a5,80000314 <kprintf+0x240>
    80000308:	fc043783          	ld	a5,-64(s0)
    8000030c:	faf048e3          	bgtz	a5,800002bc <kprintf+0x1e8>
    80000310:	02c0006f          	j	8000033c <kprintf+0x268>
    80000314:	00000013          	nop
    80000318:	0240006f          	j	8000033c <kprintf+0x268>
    8000031c:	fc043783          	ld	a5,-64(s0)
    80000320:	00178713          	addi	a4,a5,1
    80000324:	fce43023          	sd	a4,-64(s0)
    80000328:	ff040713          	addi	a4,s0,-16
    8000032c:	00f707b3          	add	a5,a4,a5
    80000330:	f907c783          	lbu	a5,-112(a5)
    80000334:	00078513          	mv	a0,a5
    80000338:	ce5ff0ef          	jal	ra,8000001c <kputc>
    8000033c:	fc043703          	ld	a4,-64(s0)
    80000340:	01f00793          	li	a5,31
    80000344:	fce7fce3          	bleu	a4,a5,8000031c <kprintf+0x248>
    80000348:	00000013          	nop
    8000034c:	0640006f          	j	800003b0 <kprintf+0x2dc>
    80000350:	fa043783          	ld	a5,-96(s0)
    80000354:	00878713          	addi	a4,a5,8
    80000358:	fae43023          	sd	a4,-96(s0)
    8000035c:	0007b783          	ld	a5,0(a5)
    80000360:	faf43c23          	sd	a5,-72(s0)
    80000364:	01c0006f          	j	80000380 <kprintf+0x2ac>
    80000368:	fb843783          	ld	a5,-72(s0)
    8000036c:	00178713          	addi	a4,a5,1
    80000370:	fae43c23          	sd	a4,-72(s0)
    80000374:	0007c783          	lbu	a5,0(a5)
    80000378:	00078513          	mv	a0,a5
    8000037c:	ca1ff0ef          	jal	ra,8000001c <kputc>
    80000380:	fb843783          	ld	a5,-72(s0)
    80000384:	0007c783          	lbu	a5,0(a5)
    80000388:	fe0790e3          	bnez	a5,80000368 <kprintf+0x294>
    8000038c:	0240006f          	j	800003b0 <kprintf+0x2dc>
    80000390:	fa043783          	ld	a5,-96(s0)
    80000394:	00878713          	addi	a4,a5,8
    80000398:	fae43023          	sd	a4,-96(s0)
    8000039c:	0007a783          	lw	a5,0(a5)
    800003a0:	0ff7f793          	andi	a5,a5,255
    800003a4:	00078513          	mv	a0,a5
    800003a8:	c75ff0ef          	jal	ra,8000001c <kputc>
    800003ac:	00000013          	nop
    800003b0:	fe042623          	sw	zero,-20(s0)
    800003b4:	fe042423          	sw	zero,-24(s0)
    800003b8:	fe042223          	sw	zero,-28(s0)
    800003bc:	0500006f          	j	8000040c <kprintf+0x338>
    800003c0:	fb744783          	lbu	a5,-73(s0)
    800003c4:	0ff7f713          	andi	a4,a5,255
    800003c8:	02500793          	li	a5,37
    800003cc:	00f71863          	bne	a4,a5,800003dc <kprintf+0x308>
    800003d0:	00100793          	li	a5,1
    800003d4:	fef42623          	sw	a5,-20(s0)
    800003d8:	0340006f          	j	8000040c <kprintf+0x338>
    800003dc:	fb744783          	lbu	a5,-73(s0)
    800003e0:	0ff7f713          	andi	a4,a5,255
    800003e4:	00a00793          	li	a5,10
    800003e8:	00f71c63          	bne	a4,a5,80000400 <kprintf+0x32c>
    800003ec:	00d00513          	li	a0,13
    800003f0:	c2dff0ef          	jal	ra,8000001c <kputc>
    800003f4:	00a00513          	li	a0,10
    800003f8:	c25ff0ef          	jal	ra,8000001c <kputc>
    800003fc:	0100006f          	j	8000040c <kprintf+0x338>
    80000400:	fb744783          	lbu	a5,-73(s0)
    80000404:	00078513          	mv	a0,a5
    80000408:	c15ff0ef          	jal	ra,8000001c <kputc>
    8000040c:	f7843783          	ld	a5,-136(s0)
    80000410:	00178713          	addi	a4,a5,1
    80000414:	f6e43c23          	sd	a4,-136(s0)
    80000418:	0007c783          	lbu	a5,0(a5)
    8000041c:	faf40ba3          	sb	a5,-73(s0)
    80000420:	fb744783          	lbu	a5,-73(s0)
    80000424:	0ff7f793          	andi	a5,a5,255
    80000428:	ce079ce3          	bnez	a5,80000120 <kprintf+0x4c>
    8000042c:	00000013          	nop
    80000430:	08813083          	ld	ra,136(sp)
    80000434:	08013403          	ld	s0,128(sp)
    80000438:	0d010113          	addi	sp,sp,208
    8000043c:	00008067          	ret

0000000080000440 <usleep>:
    80000440:	fd010113          	addi	sp,sp,-48
    80000444:	02813423          	sd	s0,40(sp)
    80000448:	03010413          	addi	s0,sp,48
    8000044c:	00050793          	mv	a5,a0
    80000450:	fcf42e23          	sw	a5,-36(s0)
    80000454:	b00027f3          	csrr	a5,mcycle
    80000458:	fef43423          	sd	a5,-24(s0)
    8000045c:	b00027f3          	csrr	a5,mcycle
    80000460:	fef43023          	sd	a5,-32(s0)
    80000464:	fe043703          	ld	a4,-32(s0)
    80000468:	fe843783          	ld	a5,-24(s0)
    8000046c:	40f70733          	sub	a4,a4,a5
    80000470:	fdc42683          	lw	a3,-36(s0)
    80000474:	06400793          	li	a5,100
    80000478:	02f687bb          	mulw	a5,a3,a5
    8000047c:	0007879b          	sext.w	a5,a5
    80000480:	02079793          	slli	a5,a5,0x20
    80000484:	0207d793          	srli	a5,a5,0x20
    80000488:	00f77463          	bleu	a5,a4,80000490 <usleep+0x50>
    8000048c:	fd1ff06f          	j	8000045c <usleep+0x1c>
    80000490:	00000013          	nop
    80000494:	00000013          	nop
    80000498:	02813403          	ld	s0,40(sp)
    8000049c:	03010113          	addi	sp,sp,48
    800004a0:	00008067          	ret

00000000800004a4 <main>:
    800004a4:	fe010113          	addi	sp,sp,-32
    800004a8:	00113c23          	sd	ra,24(sp)
    800004ac:	00813823          	sd	s0,16(sp)
    800004b0:	02010413          	addi	s0,sp,32
    800004b4:	00000517          	auipc	a0,0x0
    800004b8:	0cc50513          	addi	a0,a0,204 # 80000580 <main+0xdc>
    800004bc:	c19ff0ef          	jal	ra,800000d4 <kprintf>
    800004c0:	f14027f3          	csrr	a5,mhartid
    800004c4:	fef42623          	sw	a5,-20(s0)
    800004c8:	fec42783          	lw	a5,-20(s0)
    800004cc:	00078593          	mv	a1,a5
    800004d0:	00000517          	auipc	a0,0x0
    800004d4:	0b850513          	addi	a0,a0,184 # 80000588 <main+0xe4>
    800004d8:	bfdff0ef          	jal	ra,800000d4 <kprintf>
    800004dc:	000f47b7          	lui	a5,0xf4
    800004e0:	24078513          	addi	a0,a5,576 # f4240 <_start-0x7ff0bdc8>
    800004e4:	f5dff0ef          	jal	ra,80000440 <usleep>
    800004e8:	fec42783          	lw	a5,-20(s0)
    800004ec:	0007879b          	sext.w	a5,a5
    800004f0:	00079e63          	bnez	a5,8000050c <main+0x68>
    800004f4:	020007b7          	lui	a5,0x2000
    800004f8:	00478793          	addi	a5,a5,4 # 2000004 <_start-0x7e000004>
    800004fc:	fef43023          	sd	a5,-32(s0)
    80000500:	fe043783          	ld	a5,-32(s0)
    80000504:	00100713          	li	a4,1
    80000508:	00e7a023          	sw	a4,0(a5)
    8000050c:	00000793          	li	a5,0
    80000510:	00078513          	mv	a0,a5
    80000514:	01813083          	ld	ra,24(sp)
    80000518:	01013403          	ld	s0,16(sp)
    8000051c:	02010113          	addi	sp,sp,32
    80000520:	00008067          	ret
    80000524:	0000                	unimp
    80000526:	0000                	unimp
    80000528:	fe68                	sd	a0,248(a2)
    8000052a:	ffff                	0xffff
    8000052c:	fd34                	sd	a3,120(a0)
    8000052e:	ffff                	0xffff
    80000530:	fe88                	sd	a0,56(a3)
    80000532:	ffff                	0xffff
    80000534:	fe88                	sd	a0,56(a3)
    80000536:	ffff                	0xffff
    80000538:	fe88                	sd	a0,56(a3)
    8000053a:	ffff                	0xffff
    8000053c:	fc58                	sd	a4,184(s0)
    8000053e:	ffff                	0xffff
    80000540:	fe88                	sd	a0,56(a3)
    80000542:	ffff                	0xffff
    80000544:	fe88                	sd	a0,56(a3)
    80000546:	ffff                	0xffff
    80000548:	fe88                	sd	a0,56(a3)
    8000054a:	ffff                	0xffff
    8000054c:	fc4c                	sd	a1,184(s0)
    8000054e:	ffff                	0xffff
    80000550:	fe88                	sd	a0,56(a3)
    80000552:	ffff                	0xffff
    80000554:	fe88                	sd	a0,56(a3)
    80000556:	ffff                	0xffff
    80000558:	fe88                	sd	a0,56(a3)
    8000055a:	ffff                	0xffff
    8000055c:	fe88                	sd	a0,56(a3)
    8000055e:	ffff                	0xffff
    80000560:	fe88                	sd	a0,56(a3)
    80000562:	ffff                	0xffff
    80000564:	fe88                	sd	a0,56(a3)
    80000566:	ffff                	0xffff
    80000568:	fe28                	sd	a0,120(a2)
    8000056a:	ffff                	0xffff
    8000056c:	fe88                	sd	a0,56(a3)
    8000056e:	ffff                	0xffff
    80000570:	fe88                	sd	a0,56(a3)
    80000572:	ffff                	0xffff
    80000574:	fe88                	sd	a0,56(a3)
    80000576:	ffff                	0xffff
    80000578:	fe88                	sd	a0,56(a3)
    8000057a:	ffff                	0xffff
    8000057c:	fc64                	sd	s1,248(s0)
    8000057e:	ffff                	0xffff
    80000580:	000a                	c.slli	zero,0x2
    80000582:	0000                	unimp
    80000584:	0000                	unimp
    80000586:	0000                	unimp
    80000588:	6854                	ld	a3,144(s0)
    8000058a:	7369                	lui	t1,0xffffa
    8000058c:	6920                	ld	s0,80(a0)
    8000058e:	61682073          	csrs	0x616,a6
    80000592:	7472                	ld	s0,312(sp)
    80000594:	2520                	fld	fs0,72(a0)
    80000596:	2164                	fld	fs1,192(a0)
    80000598:	000a                	c.slli	zero,0x2
